; Listing generated by Microsoft (R) Optimizing Compiler Version 19.12.25834.0 

	TITLE	c:\K-State\cis450\Programs\C++\ObjectImplementation.cpp
	.686P
	.XMM
	include listing.inc
	.model	flat

INCLUDELIB LIBCMT
INCLUDELIB OLDNAMES

PUBLIC	??0A@@QAE@XZ					; A::A
PUBLIC	?f@A@@QAEXH@Z					; A::f
PUBLIC	_main
EXTRN	??2@YAPAXI@Z:PROC				; operator new
; Function compile flags: /Odtp
; File c:\k-state\cis450\programs\c++\objectimplementation.cpp
_TEXT	SEGMENT
_ap2$ = -24						; size = 4
_ap1$ = -20						; size = 4
tv81 = -16						; size = 4
$T1 = -12						; size = 4
tv72 = -8						; size = 4
$T2 = -4						; size = 4
_main	PROC

; 28   : {

  00000	55		 push	 ebp
  00001	8b ec		 mov	 ebp, esp
  00003	83 ec 18	 sub	 esp, 24			; 00000018H

; 29   :    A *ap1 = new A();

  00006	6a 0c		 push	 12			; 0000000cH
  00008	e8 00 00 00 00	 call	 ??2@YAPAXI@Z		; operator new
  0000d	83 c4 04	 add	 esp, 4
  00010	89 45 fc	 mov	 DWORD PTR $T2[ebp], eax
  00013	83 7d fc 00	 cmp	 DWORD PTR $T2[ebp], 0
  00017	74 0d		 je	 SHORT $LN3@main
  00019	8b 4d fc	 mov	 ecx, DWORD PTR $T2[ebp]
  0001c	e8 00 00 00 00	 call	 ??0A@@QAE@XZ		; A::A
  00021	89 45 f8	 mov	 DWORD PTR tv72[ebp], eax
  00024	eb 07		 jmp	 SHORT $LN4@main
$LN3@main:
  00026	c7 45 f8 00 00
	00 00		 mov	 DWORD PTR tv72[ebp], 0
$LN4@main:
  0002d	8b 45 f8	 mov	 eax, DWORD PTR tv72[ebp]
  00030	89 45 ec	 mov	 DWORD PTR _ap1$[ebp], eax

; 30   :    A *ap2 = new A();

  00033	6a 0c		 push	 12			; 0000000cH
  00035	e8 00 00 00 00	 call	 ??2@YAPAXI@Z		; operator new
  0003a	83 c4 04	 add	 esp, 4
  0003d	89 45 f4	 mov	 DWORD PTR $T1[ebp], eax
  00040	83 7d f4 00	 cmp	 DWORD PTR $T1[ebp], 0
  00044	74 0d		 je	 SHORT $LN5@main
  00046	8b 4d f4	 mov	 ecx, DWORD PTR $T1[ebp]
  00049	e8 00 00 00 00	 call	 ??0A@@QAE@XZ		; A::A
  0004e	89 45 f0	 mov	 DWORD PTR tv81[ebp], eax
  00051	eb 07		 jmp	 SHORT $LN6@main
$LN5@main:
  00053	c7 45 f0 00 00
	00 00		 mov	 DWORD PTR tv81[ebp], 0
$LN6@main:
  0005a	8b 4d f0	 mov	 ecx, DWORD PTR tv81[ebp]
  0005d	89 4d e8	 mov	 DWORD PTR _ap2$[ebp], ecx

; 31   :    ap1->f(3);

  00060	6a 03		 push	 3
  00062	8b 4d ec	 mov	 ecx, DWORD PTR _ap1$[ebp]
  00065	e8 00 00 00 00	 call	 ?f@A@@QAEXH@Z		; A::f

; 32   :    ap2->f(5);

  0006a	6a 05		 push	 5
  0006c	8b 4d e8	 mov	 ecx, DWORD PTR _ap2$[ebp]
  0006f	e8 00 00 00 00	 call	 ?f@A@@QAEXH@Z		; A::f

; 33   :    
; 34   :    return 0;

  00074	33 c0		 xor	 eax, eax

; 35   : }

  00076	8b e5		 mov	 esp, ebp
  00078	5d		 pop	 ebp
  00079	c3		 ret	 0
_main	ENDP
_TEXT	ENDS
; Function compile flags: /Odtp
; File c:\k-state\cis450\programs\c++\objectimplementation.cpp
;	COMDAT ?f@A@@QAEXH@Z
_TEXT	SEGMENT
_this$ = -4						; size = 4
_x$ = 8							; size = 4
?f@A@@QAEXH@Z PROC					; A::f, COMDAT
; _this$ = ecx

; 19   :     void f(int x) {

  00000	55		 push	 ebp
  00001	8b ec		 mov	 ebp, esp
  00003	51		 push	 ecx
  00004	89 4d fc	 mov	 DWORD PTR _this$[ebp], ecx

; 20   :       i1 += x;

  00007	8b 45 fc	 mov	 eax, DWORD PTR _this$[ebp]
  0000a	8b 08		 mov	 ecx, DWORD PTR [eax]
  0000c	03 4d 08	 add	 ecx, DWORD PTR _x$[ebp]
  0000f	8b 55 fc	 mov	 edx, DWORD PTR _this$[ebp]
  00012	89 0a		 mov	 DWORD PTR [edx], ecx

; 21   :       c1 += x * 2;

  00014	8b 45 fc	 mov	 eax, DWORD PTR _this$[ebp]
  00017	0f be 48 04	 movsx	 ecx, BYTE PTR [eax+4]
  0001b	8b 55 08	 mov	 edx, DWORD PTR _x$[ebp]
  0001e	8d 04 51	 lea	 eax, DWORD PTR [ecx+edx*2]
  00021	8b 4d fc	 mov	 ecx, DWORD PTR _this$[ebp]
  00024	88 41 04	 mov	 BYTE PTR [ecx+4], al

; 22   :       s1 += x + 3;

  00027	8b 55 fc	 mov	 edx, DWORD PTR _this$[ebp]
  0002a	0f bf 42 06	 movsx	 eax, WORD PTR [edx+6]
  0002e	8b 4d 08	 mov	 ecx, DWORD PTR _x$[ebp]
  00031	8d 54 08 03	 lea	 edx, DWORD PTR [eax+ecx+3]
  00035	8b 45 fc	 mov	 eax, DWORD PTR _this$[ebp]
  00038	66 89 50 06	 mov	 WORD PTR [eax+6], dx

; 23   :       l1 += x - 5;

  0003c	8b 4d fc	 mov	 ecx, DWORD PTR _this$[ebp]
  0003f	8b 51 08	 mov	 edx, DWORD PTR [ecx+8]
  00042	8b 45 08	 mov	 eax, DWORD PTR _x$[ebp]
  00045	8d 4c 10 fb	 lea	 ecx, DWORD PTR [eax+edx-5]
  00049	8b 55 fc	 mov	 edx, DWORD PTR _this$[ebp]
  0004c	89 4a 08	 mov	 DWORD PTR [edx+8], ecx

; 24   :     }

  0004f	8b e5		 mov	 esp, ebp
  00051	5d		 pop	 ebp
  00052	c2 04 00	 ret	 4
?f@A@@QAEXH@Z ENDP					; A::f
_TEXT	ENDS
; Function compile flags: /Odtp
; File c:\k-state\cis450\programs\c++\objectimplementation.cpp
;	COMDAT ??0A@@QAE@XZ
_TEXT	SEGMENT
_this$ = -4						; size = 4
??0A@@QAE@XZ PROC					; A::A, COMDAT
; _this$ = ecx

; 12   :     A() {

  00000	55		 push	 ebp
  00001	8b ec		 mov	 ebp, esp
  00003	51		 push	 ecx
  00004	89 4d fc	 mov	 DWORD PTR _this$[ebp], ecx

; 13   :       i1 = 3;

  00007	8b 45 fc	 mov	 eax, DWORD PTR _this$[ebp]
  0000a	c7 00 03 00 00
	00		 mov	 DWORD PTR [eax], 3

; 14   :       c1 = 4;

  00010	8b 4d fc	 mov	 ecx, DWORD PTR _this$[ebp]
  00013	c6 41 04 04	 mov	 BYTE PTR [ecx+4], 4

; 15   :       s1 = 5;

  00017	ba 05 00 00 00	 mov	 edx, 5
  0001c	8b 45 fc	 mov	 eax, DWORD PTR _this$[ebp]
  0001f	66 89 50 06	 mov	 WORD PTR [eax+6], dx

; 16   :       l1 = 6;

  00023	8b 4d fc	 mov	 ecx, DWORD PTR _this$[ebp]
  00026	c7 41 08 06 00
	00 00		 mov	 DWORD PTR [ecx+8], 6

; 17   :     }

  0002d	8b 45 fc	 mov	 eax, DWORD PTR _this$[ebp]
  00030	8b e5		 mov	 esp, ebp
  00032	5d		 pop	 ebp
  00033	c3		 ret	 0
??0A@@QAE@XZ ENDP					; A::A
_TEXT	ENDS
END
