; Listing generated by Microsoft (R) Optimizing Compiler Version 19.15.26726.0 

	TITLE	c:\K-State\cis450\Programs\link_C_Asm\inline.c
	.686P
	.XMM
	include listing.inc
	.model	flat

INCLUDELIB LIBCMT
INCLUDELIB OLDNAMES

PUBLIC	_save_registers
PUBLIC	_f
; Function compile flags: /Ogspy
; File c:\k-state\cis450\programs\link_c_asm\inline.c
;	COMDAT _f
_TEXT	SEGMENT
_a$ = 8							; size = 4
_f	PROC						; COMDAT

; 9    : void f(int a) {

  00000	55		 push	 ebp
  00001	8b ec		 mov	 ebp, esp

; 10   :     if (a > 0) f(a-1);

  00003	8b 45 08	 mov	 eax, DWORD PTR _a$[ebp]
  00006	85 c0		 test	 eax, eax
  00008	7e 08		 jle	 SHORT $LN2@f
  0000a	48		 dec	 eax
  0000b	50		 push	 eax
  0000c	e8 00 00 00 00	 call	 _f
  00011	59		 pop	 ecx
$LN2@f:

; 11   : 	save_registers();

  00012	50		 push	 eax
  00013	52		 push	 edx
  00014	51		 push	 ecx

; 12   : }

  00015	5d		 pop	 ebp
  00016	c3		 ret	 0
_f	ENDP
_TEXT	ENDS
; Function compile flags: /Ogspy
; File c:\k-state\cis450\programs\link_c_asm\inline.c
;	COMDAT _save_registers
_TEXT	SEGMENT
_save_registers PROC					; COMDAT

; 2    :     _asm {
; 3    :         push eax

  00000	50		 push	 eax

; 4    :         push edx

  00001	52		 push	 edx

; 5    :         push ecx

  00002	51		 push	 ecx

; 6    :     }
; 7    : }

  00003	c3		 ret	 0
_save_registers ENDP
_TEXT	ENDS
END
