; Listing generated by Microsoft (R) Optimizing Compiler Version 19.24.28316.0 

	TITLE	C:\K-State\cis450\CoursePrograms\CS450_course_load\MMPrograms\Chap1_2\LinkAsmAndC\EBX_NonVolatile\g.c
	.686P
	.XMM
	include listing.inc
	.model	flat

INCLUDELIB LIBCMT
INCLUDELIB OLDNAMES

PUBLIC	_g
; Function compile flags: /Odtp
; File C:\K-State\cis450\CoursePrograms\CS450_course_load\MMPrograms\Chap1_2\LinkAsmAndC\EBX_NonVolatile\g.c
_TEXT	SEGMENT
_g	PROC

; 1    : int g() {

  00000	55		 push	 ebp
  00001	8b ec		 mov	 ebp, esp

; 2    : _asm {
; 3    :    // allocate 8 bytes for local variables
; 4    :      sub esp, 8

  00003	83 ec 08	 sub	 esp, 8

; 5    : 
; 6    :    // the body does not use ebx
; 7    :    mov eax, DWORD PTR[ebp+8]

  00006	8b 45 08	 mov	 eax, DWORD PTR [ebp+8]

; 8    : 
; 9    :    // deallocate local variables
; 10   :    mov esp, ebp

  00009	8b e5		 mov	 esp, ebp

; 11   :   }
; 12   : }

  0000b	5d		 pop	 ebp
  0000c	c3		 ret	 0
_g	ENDP
_TEXT	ENDS
END
